target datalayout = "e-m:e-p270:32:32-p271:32:32-p272:64:64-i64:64-i128:128-f80:128-n8:16:32:64-S128"
target triple = "x86_64-pc-linux-gnu"

%struct.AVFilterContext = type { ptr, ptr, ptr, ptr, ptr, i32, ptr, ptr, i32, ptr, ptr, i32, i32, ptr, ptr, ptr, ptr, i32, ptr, i32, i32 }
%struct.AudioFFTDeNoiseContext = type { ptr, i32, i64, i64, float, float, i32, ptr, float, i32, i32, i32, i32, float, i32, float, float, i32, i32, i32, i32, float, i32, i32, i32, i32, i32, i32, i32, [15 x i32], ptr, ptr, ptr, ptr, ptr, ptr, double, double, double, [17 x i32], i32, [25 x double], [5 x double], [75 x double], [75 x double] }
%struct.DeNoiseChannel = type { [15 x double], [15 x double], [15 x double], ptr, ptr, ptr, ptr, ptr, ptr, ptr, ptr, ptr, ptr, ptr, ptr, ptr, ptr, ptr, ptr, ptr, ptr, ptr, ptr, [15 x double], [15 x double], [15 x double], [15 x double], double, double, double, double, double, double, double, double, double }

@.str.68 = private unnamed_addr constant [13 x i8] c"sample_noise\00", align 1
@.str.71 = private unnamed_addr constant [3 x i8] c"sn\00", align 1

; Function Attrs: nounwind uwtable
define internal i32 @process_command(ptr noundef %0, ptr noundef %1, ptr noundef %2, ptr noundef %3, i32 noundef %4, i32 noundef %5) #1 {
  %7 = alloca i32, align 4
  %8 = alloca ptr, align 8
  %9 = alloca ptr, align 8
  %10 = alloca ptr, align 8
  %11 = alloca ptr, align 8
  %12 = alloca i32, align 4
  %13 = alloca i32, align 4
  %14 = alloca ptr, align 8
  %15 = alloca i32, align 4
  %16 = alloca i32, align 4
  %17 = alloca i32, align 4
  %18 = alloca ptr, align 8
  store ptr %0, ptr %8, align 8, !tbaa !4
  store ptr %1, ptr %9, align 8, !tbaa !37
  store ptr %2, ptr %10, align 8, !tbaa !37
  store ptr %3, ptr %11, align 8, !tbaa !37
  store i32 %4, ptr %12, align 4, !tbaa !32
  store i32 %5, ptr %13, align 4, !tbaa !32
  call void @llvm.lifetime.start.p0(i64 8, ptr %14) #12
  %19 = load ptr, ptr %8, align 8, !tbaa !4
  %20 = getelementptr inbounds nuw %struct.AVFilterContext, ptr %19, i32 0, i32 9
  %21 = load ptr, ptr %20, align 8, !tbaa !9
  store ptr %21, ptr %14, align 8, !tbaa !22
  call void @llvm.lifetime.start.p0(i64 4, ptr %15) #12
  store i32 0, ptr %15, align 4, !tbaa !32
  %22 = load ptr, ptr %8, align 8, !tbaa !4
  %23 = load ptr, ptr %9, align 8, !tbaa !37
  %24 = load ptr, ptr %10, align 8, !tbaa !37
  %25 = load ptr, ptr %11, align 8, !tbaa !37
  %26 = load i32, ptr %12, align 4, !tbaa !32
  %27 = load i32, ptr %13, align 4, !tbaa !32
  %28 = call i32 @ff_filter_process_command(ptr noundef %22, ptr noundef %23, ptr noundef %24, ptr noundef %25, i32 noundef %26, i32 noundef %27)
  store i32 %28, ptr %15, align 4, !tbaa !32
  %29 = load i32, ptr %15, align 4, !tbaa !32
  %30 = icmp slt i32 %29, 0
  br i1 %30, label %31, label %33

31:                                               ; preds = %6
  %32 = load i32, ptr %15, align 4, !tbaa !32
  store i32 %32, ptr %7, align 4
  store i32 1, ptr %16, align 4
  br label %81

33:                                               ; preds = %6
  %34 = load ptr, ptr %9, align 8, !tbaa !37
  %35 = call i32 @strcmp(ptr noundef %34, ptr noundef @.str.68) #13
  %36 = icmp ne i32 %35, 0
  br i1 %36, label %37, label %41

37:                                               ; preds = %33
  %38 = load ptr, ptr %9, align 8, !tbaa !37
  %39 = call i32 @strcmp(ptr noundef %38, ptr noundef @.str.71) #13
  %40 = icmp ne i32 %39, 0
  br i1 %40, label %42, label %41

41:                                               ; preds = %37, %33
  store i32 0, ptr %7, align 4
  store i32 1, ptr %16, align 4
  br label %81

42:                                               ; preds = %37
  call void @llvm.lifetime.start.p0(i64 4, ptr %17) #12
  store i32 0, ptr %17, align 4, !tbaa !32
  br label %43

43:                                               ; preds = %77, %42
  %44 = load i32, ptr %17, align 4, !tbaa !32
  %45 = load ptr, ptr %14, align 8, !tbaa !22
  %46 = getelementptr inbounds nuw %struct.AudioFFTDeNoiseContext, ptr %45, i32 0, i32 17
  %47 = load i32, ptr %46, align 4, !tbaa !33
  %48 = icmp slt i32 %44, %47
  br i1 %48, label %50, label %49

49:                                               ; preds = %43
  store i32 2, ptr %16, align 4
  call void @llvm.lifetime.end.p0(i64 4, ptr %17) #12
  br label %80

50:                                               ; preds = %43
  call void @llvm.lifetime.start.p0(i64 8, ptr %18) #12
  %51 = load ptr, ptr %14, align 8, !tbaa !22
  %52 = getelementptr inbounds nuw %struct.AudioFFTDeNoiseContext, ptr %51, i32 0, i32 34
  %53 = load ptr, ptr %52, align 8, !tbaa !24
  %54 = load i32, ptr %17, align 4, !tbaa !32
  %55 = sext i32 %54 to i64
  %56 = getelementptr inbounds %struct.DeNoiseChannel, ptr %53, i64 %55
  store ptr %56, ptr %18, align 8, !tbaa !34
  %57 = load ptr, ptr %14, align 8, !tbaa !22
  %58 = getelementptr inbounds nuw %struct.AudioFFTDeNoiseContext, ptr %57, i32 0, i32 4
  %59 = load float, ptr %58, align 8, !tbaa !38
  %60 = fpext nsz float %59 to double
  %61 = load ptr, ptr %18, align 8, !tbaa !34
  %62 = getelementptr inbounds nuw %struct.DeNoiseChannel, ptr %61, i32 0, i32 27
  store double %60, ptr %62, align 8, !tbaa !39
  %63 = load ptr, ptr %14, align 8, !tbaa !22
  %64 = getelementptr inbounds nuw %struct.AudioFFTDeNoiseContext, ptr %63, i32 0, i32 5
  %65 = load float, ptr %64, align 4, !tbaa !42
  %66 = fpext nsz float %65 to double
  %67 = load ptr, ptr %18, align 8, !tbaa !34
  %68 = getelementptr inbounds nuw %struct.DeNoiseChannel, ptr %67, i32 0, i32 29
  store double %66, ptr %68, align 8, !tbaa !43
  %69 = load ptr, ptr %14, align 8, !tbaa !22
  %70 = getelementptr inbounds nuw %struct.AudioFFTDeNoiseContext, ptr %69, i32 0, i32 8
  %71 = load float, ptr %70, align 8, !tbaa !44
  %72 = fpext nsz float %71 to double
  %73 = load ptr, ptr %18, align 8, !tbaa !34
  %74 = getelementptr inbounds nuw %struct.DeNoiseChannel, ptr %73, i32 0, i32 31
  store double %72, ptr %74, align 8, !tbaa !45
  %75 = load ptr, ptr %14, align 8, !tbaa !22
  %76 = load ptr, ptr %18, align 8, !tbaa !34
  call void @set_parameters(ptr noundef %75, ptr noundef %76, i32 noundef 1, i32 noundef 1)
  call void @llvm.lifetime.end.p0(i64 8, ptr %18) #12
  br label %77

77:                                               ; preds = %50
  %78 = load i32, ptr %17, align 4, !tbaa !32
  %79 = add nsw i32 %78, 1
  store i32 %79, ptr %17, align 4, !tbaa !32
  br label %43, !llvm.loop !46

80:                                               ; preds = %49
  store i32 0, ptr %7, align 4
  store i32 1, ptr %16, align 4
  br label %81

81:                                               ; preds = %80, %41, %31
  call void @llvm.lifetime.end.p0(i64 4, ptr %15) #12
  call void @llvm.lifetime.end.p0(i64 8, ptr %14) #12
  %82 = load i32, ptr %7, align 4
  ret i32 %82
}