; Function Attrs: nounwind uwtable
define internal range(i32 -2147483648, 1) i32 @process_command(ptr noundef %0, ptr noundef %1, ptr noundef %2, ptr noundef %3, i32 noundef %4, i32 noundef %5) #1 {
  %7 = getelementptr inbounds nuw i8, ptr %0, i64 72
  %8 = load ptr, ptr %7, align 8, !tbaa !4
  %9 = tail call i32 @ff_filter_process_command(ptr noundef %0, ptr noundef %1, ptr noundef %2, ptr noundef %3, i32 noundef %4, i32 noundef %5) #14
  %10 = icmp slt i32 %9, 0
  br i1 %10, label %.loopexit, label %11

11:                                               ; preds = %6
  %12 = tail call i32 @strcmp(ptr noundef nonnull dereferenceable(1) %1, ptr noundef nonnull dereferenceable(13) @.str.68) #15
  %.not = icmp eq i32 %12, 0
  br i1 %.not, label %.loopexit, label %sub_0

sub_0:                                            ; preds = %11
  %13 = load i8, ptr %1, align 1
  %.not28 = icmp eq i8 %13, 115
  br i1 %.not28, label %sub_1, label %.preheader

sub_1:                                            ; preds = %sub_0
  %14 = getelementptr inbounds nuw i8, ptr %1, i64 1
  %15 = load i8, ptr %14, align 1
  %.not29 = icmp eq i8 %15, 110
  br i1 %.not29, label %.tail, label %.preheader

.tail:                                            ; preds = %sub_1
  %16 = getelementptr inbounds nuw i8, ptr %1, i64 2
  %17 = load i8, ptr %16, align 1
  %18 = icmp eq i8 %17, 0
  br i1 %18, label %.loopexit, label %.preheader

.preheader:                                       ; preds = %sub_1, %sub_0, %.tail
  %19 = getelementptr inbounds nuw i8, ptr %8, i64 92
  %20 = load i32, ptr %19, align 4, !tbaa !28
  %21 = icmp sgt i32 %20, 0
  br i1 %21, label %.lr.ph, label %.loopexit

.lr.ph:                                           ; preds = %.preheader
  %22 = getelementptr inbounds nuw i8, ptr %8, i64 232
  %23 = getelementptr inbounds nuw i8, ptr %8, i64 32
  %24 = getelementptr inbounds nuw i8, ptr %8, i64 36
  %25 = getelementptr inbounds nuw i8, ptr %8, i64 56
  br label %26

26:                                               ; preds = %.lr.ph, %26
  %indvars.iv = phi i64 [ 0, %.lr.ph ], [ %indvars.iv.next, %26 ]
  %27 = load ptr, ptr %22, align 8, !tbaa !20
  %28 = getelementptr inbounds nuw %struct.DeNoiseChannel, ptr %27, i64 %indvars.iv
  %29 = load float, ptr %23, align 8, !tbaa !31
  %30 = fpext nsz float %29 to double
  %31 = getelementptr inbounds nuw i8, ptr %28, i64 1000
  store double %30, ptr %31, align 8, !tbaa !32
  %32 = load float, ptr %24, align 4, !tbaa !35
  %33 = fpext nsz float %32 to double
  %34 = getelementptr inbounds nuw i8, ptr %28, i64 1016
  store double %33, ptr %34, align 8, !tbaa !36
  %35 = load float, ptr %25, align 8, !tbaa !37
  %36 = fpext nsz float %35 to double
  %37 = getelementptr inbounds nuw i8, ptr %28, i64 1032
  store double %36, ptr %37, align 8, !tbaa !38
  tail call fastcc void @set_parameters(ptr noundef nonnull %8, ptr noundef %28, i32 noundef 1)
  %indvars.iv.next = add nuw nsw i64 %indvars.iv, 1
  %38 = load i32, ptr %19, align 4, !tbaa !28
  %39 = sext i32 %38 to i64
  %40 = icmp slt i64 %indvars.iv.next, %39
  br i1 %40, label %26, label %.loopexit, !llvm.loop !39

.loopexit:                                        ; preds = %26, %.preheader, %11, %.tail, %6
  %.0 = phi i32 [ %9, %6 ], [ 0, %.tail ], [ 0, %11 ], [ 0, %.preheader ], [ 0, %26 ]
  ret i32 %.0
}